target datalayout = "e-m:e-p270:32:32-p271:32:32-p272:64:64-i64:64-i128:128-f80:128-n8:16:32:64-S128"
target triple = "x86_64-pc-linux-gnu"

%struct.RLTable = type { i32, i32, ptr, ptr, ptr, [2 x ptr], [2 x ptr], [2 x ptr], [32 x ptr] }

@msmpeg4_common_init_static.rl_table_store = internal global [6 x [2 x [195 x i8]]] zeroinitializer, align 16
@ff_rl_table = external hidden global [6 x %struct.RLTable], align 16

; Function Attrs: cold nounwind optsize uwtable
define internal void @msmpeg4_common_init_static() #0 {
  %1 = alloca i32, align 4
  call void @llvm.lifetime.start.p0(i64 4, ptr %1) #5
  store i32 0, ptr %1, align 4, !tbaa !41
  br label %2

2:                                                ; preds = %14, %0
  %3 = load i32, ptr %1, align 4, !tbaa !41
  %4 = icmp slt i32 %3, 6
  br i1 %4, label %6, label %5

5:                                                ; preds = %2
  call void @llvm.lifetime.end.p0(i64 4, ptr %1) #5
  br label %17

6:                                                ; preds = %2
  %7 = load i32, ptr %1, align 4, !tbaa !41
  %8 = sext i32 %7 to i64
  %9 = getelementptr inbounds [6 x %struct.RLTable], ptr @ff_rl_table, i64 0, i64 %8
  %10 = load i32, ptr %1, align 4, !tbaa !41
  %11 = sext i32 %10 to i64
  %12 = getelementptr inbounds [6 x [2 x [195 x i8]]], ptr @msmpeg4_common_init_static.rl_table_store, i64 0, i64 %11
  %13 = getelementptr inbounds [2 x [195 x i8]], ptr %12, i64 0, i64 0
  call void @ff_rl_init(ptr noundef %9, ptr noundef %13)
  br label %14

14:                                               ; preds = %6
  %15 = load i32, ptr %1, align 4, !tbaa !41
  %16 = add nsw i32 %15, 1
  store i32 %16, ptr %1, align 4, !tbaa !41
  br label %2, !llvm.loop !42

17:                                               ; preds = %5
  call void @init_h263_dc_for_msmpeg4() #6
  ret void
}