; Function Attrs: cold nounwind optsize uwtable
define internal void @msmpeg4_common_init_static() #0 {
  br label %2

1:                                                ; preds = %2
  tail call fastcc void @init_h263_dc_for_msmpeg4() #7
  ret void

2:                                                ; preds = %0, %2
  %indvars.iv = phi i64 [ 0, %0 ], [ %indvars.iv.next, %2 ]
  %3 = getelementptr inbounds nuw [6 x %struct.RLTable], ptr @ff_rl_table, i64 0, i64 %indvars.iv
  %4 = getelementptr inbounds nuw [6 x [2 x [195 x i8]]], ptr @msmpeg4_common_init_static.rl_table_store, i64 0, i64 %indvars.iv
  tail call void @ff_rl_init(ptr noundef nonnull %3, ptr noundef nonnull %4) #6
  %indvars.iv.next = add nuw nsw i64 %indvars.iv, 1
  %exitcond.not = icmp eq i64 %indvars.iv.next, 6
  br i1 %exitcond.not, label %1, label %2, !llvm.loop !39
}